target datalayout = "e-m:e-p270:32:32-p271:32:32-p272:64:64-i64:64-i128:128-f80:128-n8:16:32:64-S128"
target triple = "x86_64-pc-linux-gnu"

%struct.WebPHeaderStructure = type { ptr, i64, i32, i64, ptr, i64, i64, i64, i32 }

; Function Attrs: nounwind uwtable
define hidden i32 @WebPParseHeaders(ptr noundef %0) #0 {
  %2 = alloca ptr, align 8
  %3 = alloca i32, align 4
  %4 = alloca i32, align 4
  store ptr %0, ptr %2, align 8, !tbaa !3
  call void @llvm.lifetime.start.p0(i64 4, ptr %3) #7
  call void @llvm.lifetime.start.p0(i64 4, ptr %4) #7
  store i32 0, ptr %4, align 4, !tbaa !7
  %5 = load ptr, ptr %2, align 8, !tbaa !3
  %6 = getelementptr inbounds nuw %struct.WebPHeaderStructure, ptr %5, i32 0, i32 0
  %7 = load ptr, ptr %6, align 8, !tbaa !9
  %8 = load ptr, ptr %2, align 8, !tbaa !3
  %9 = getelementptr inbounds nuw %struct.WebPHeaderStructure, ptr %8, i32 0, i32 1
  %10 = load i64, ptr %9, align 8, !tbaa !13
  %11 = load ptr, ptr %2, align 8, !tbaa !3
  %12 = call i32 @ParseHeadersInternal(ptr noundef %7, i64 noundef %10, ptr noundef null, ptr noundef null, ptr noundef null, ptr noundef %4, ptr noundef null, ptr noundef %11)
  store volatile i32 %12, ptr %3, align 4, !tbaa !7
  %13 = load volatile i32, ptr %3, align 4, !tbaa !7
  %14 = icmp eq i32 %13, 0
  br i1 %14, label %18, label %15

15:                                               ; preds = %1
  %16 = load volatile i32, ptr %3, align 4, !tbaa !7
  %17 = icmp eq i32 %16, 7
  br i1 %17, label %18, label %23

18:                                               ; preds = %15, %1
  %19 = load i32, ptr %4, align 4, !tbaa !7
  %20 = icmp ne i32 %19, 0
  br i1 %20, label %21, label %22

21:                                               ; preds = %18
  store volatile i32 4, ptr %3, align 4, !tbaa !7
  br label %22

22:                                               ; preds = %21, %18
  br label %23

23:                                               ; preds = %22, %15
  %24 = load volatile i32, ptr %3, align 4, !tbaa !7
  call void @llvm.lifetime.end.p0(i64 4, ptr %4) #7
  call void @llvm.lifetime.end.p0(i64 4, ptr %3) #7
  ret i32 %24
}