; Function Attrs: nounwind uwtable
define hidden i32 @WebPParseHeaders(ptr noundef captures(address_is_null) %0) local_unnamed_addr #0 {
  %2 = alloca i32, align 4
  %3 = alloca i32, align 4
  call void @llvm.lifetime.start.p0(i64 4, ptr nonnull %2)
  call void @llvm.lifetime.start.p0(i64 4, ptr nonnull %3) #10
  store i32 0, ptr %3, align 4, !tbaa !3
  %4 = load ptr, ptr %0, align 8, !tbaa !7
  %5 = getelementptr inbounds nuw i8, ptr %0, i64 8
  %6 = load i64, ptr %5, align 8, !tbaa !12
  %7 = call fastcc i32 @ParseHeadersInternal(ptr noundef %4, i64 noundef %6, ptr noundef null, ptr noundef null, ptr noundef null, ptr noundef %3, ptr noundef null, ptr noundef nonnull %0)
  store volatile i32 %7, ptr %2, align 4, !tbaa !3
  %.0..0..0..0. = load volatile i32, ptr %2, align 4, !tbaa !3
  %8 = icmp eq i32 %.0..0..0..0., 0
  br i1 %8, label %13, label %9

9:                                                ; preds = %1
  %.0..0..0..0.2 = load volatile i32, ptr %2, align 4, !tbaa !3
  %10 = icmp eq i32 %.0..0..0..0.2, 7
  %11 = load i32, ptr %3, align 4
  %12 = icmp ne i32 %11, 0
  %or.cond = select i1 %10, i1 %12, i1 false
  br i1 %or.cond, label %14, label %15

13:                                               ; preds = %1
  %.old = load i32, ptr %3, align 4, !tbaa !3
  %.old1.not = icmp eq i32 %.old, 0
  br i1 %.old1.not, label %15, label %14

14:                                               ; preds = %9, %13
  store volatile i32 4, ptr %2, align 4, !tbaa !3
  br label %15

15:                                               ; preds = %13, %14, %9
  %.0..0..0..0.3 = load volatile i32, ptr %2, align 4, !tbaa !3
  call void @llvm.lifetime.end.p0(i64 4, ptr nonnull %3) #10
  call void @llvm.lifetime.end.p0(i64 4, ptr nonnull %2)
  ret i32 %.0..0..0..0.3
}